; Function Attrs: mustprogress uwtable
define noundef ptr @_ZN6icu_7511PluralRules11createRulesERKNS_13UnicodeStringER10UErrorCode(ptr noundef nonnull align 8 dereferenceable(64) %description, ptr noundef nonnull align 4 dereferenceable(4) %status) local_unnamed_addr #1 align 2 personality ptr @__gxx_personality_v0 {
entry:
  %parser = alloca %"class.icu_75::PluralRuleParser", align 8
  %0 = load i32, ptr %status, align 4
  %cmp.i = icmp slt i32 %0, 1
  br i1 %cmp.i, label %if.end, label %return

if.end:                                           ; preds = %entry
  call void @_ZN6icu_7516PluralRuleParserC1Ev(ptr noundef nonnull align 8 dereferenceable(120) %parser)
  %call1 = call noundef ptr @_ZN6icu_757UMemorynwEm(i64 noundef 32) #25
  %new.isnull = icmp eq ptr %call1, null
  br i1 %new.isnull, label %new.cont, label %new.notnull

new.notnull:                                      ; preds = %if.end
  invoke void @_ZN6icu_7511PluralRulesC1ER10UErrorCode(ptr noundef nonnull align 8 dereferenceable(28) %call1, ptr noundef nonnull align 4 dereferenceable(4) %status)
          to label %invoke.cont3 unwind label %lpad

new.cont:                                         ; preds = %if.end
  %1 = load i32, ptr %status, align 4
  %cmp.i.i = icmp sgt i32 %1, 0
  br i1 %cmp.i.i, label %_ZN6icu_7512LocalPointerINS_11PluralRulesEED2Ev.exit20, label %if.then.i

if.then.i:                                        ; preds = %new.cont
  store i32 7, ptr %status, align 4
  br label %_ZN6icu_7512LocalPointerINS_11PluralRulesEED2Ev.exit20

invoke.cont3:                                     ; preds = %new.notnull
  %.pre = load i32, ptr %status, align 4
  %2 = icmp slt i32 %.pre, 1
  br i1 %2, label %if.end9, label %delete.notnull.i17

lpad:                                             ; preds = %new.notnull
  %3 = landingpad { ptr, i32 }
          cleanup
  call void @_ZN6icu_757UMemorydlEPv(ptr noundef nonnull %call1) #25
  br label %ehcleanup

delete.notnull.i:                                 ; preds = %if.end9
  %4 = landingpad { ptr, i32 }
          cleanup
  %vtable.i = load ptr, ptr %call1, align 8
  %vfn.i = getelementptr inbounds i8, ptr %vtable.i, i64 8
  %5 = load ptr, ptr %vfn.i, align 8
  call void %5(ptr noundef nonnull align 8 dereferenceable(28) %call1) #25
  br label %ehcleanup

if.end9:                                          ; preds = %invoke.cont3
  invoke void @_ZN6icu_7516PluralRuleParser5parseERKNS_13UnicodeStringEPNS_11PluralRulesER10UErrorCode(ptr noundef nonnull align 8 dereferenceable(120) %parser, ptr noundef nonnull align 8 dereferenceable(64) %description, ptr noundef nonnull %call1, ptr noundef nonnull align 4 dereferenceable(4) %status)
          to label %invoke.cont12 unwind label %delete.notnull.i

invoke.cont12:                                    ; preds = %if.end9
  %6 = load i32, ptr %status, align 4
  %cmp.i10 = icmp slt i32 %6, 1
  br i1 %cmp.i10, label %_ZN6icu_7512LocalPointerINS_11PluralRulesEED2Ev.exit20, label %delete.notnull.i13

delete.notnull.i13:                               ; preds = %invoke.cont12
  %vtable.i14 = load ptr, ptr %call1, align 8
  %vfn.i15 = getelementptr inbounds i8, ptr %vtable.i14, i64 8
  %7 = load ptr, ptr %vfn.i15, align 8
  call void %7(ptr noundef nonnull align 8 dereferenceable(28) %call1) #25
  br label %_ZN6icu_7512LocalPointerINS_11PluralRulesEED2Ev.exit20

delete.notnull.i17:                               ; preds = %invoke.cont3
  %vtable.i18 = load ptr, ptr %call1, align 8
  %vfn.i19 = getelementptr inbounds i8, ptr %vtable.i18, i64 8
  %8 = load ptr, ptr %vfn.i19, align 8
  call void %8(ptr noundef nonnull align 8 dereferenceable(28) %call1) #25
  br label %_ZN6icu_7512LocalPointerINS_11PluralRulesEED2Ev.exit20

_ZN6icu_7512LocalPointerINS_11PluralRulesEED2Ev.exit20: ; preds = %if.then.i, %new.cont, %invoke.cont12, %delete.notnull.i13, %delete.notnull.i17
  %retval.031 = phi ptr [ null, %delete.notnull.i17 ], [ null, %delete.notnull.i13 ], [ %call1, %invoke.cont12 ], [ null, %new.cont ], [ null, %if.then.i ]
  call void @_ZN6icu_7516PluralRuleParserD1Ev(ptr noundef nonnull align 8 dereferenceable(120) %parser) #25
  br label %return

ehcleanup:                                        ; preds = %delete.notnull.i, %lpad
  %.pn = phi { ptr, i32 } [ %3, %lpad ], [ %4, %delete.notnull.i ]
  call void @_ZN6icu_7516PluralRuleParserD1Ev(ptr noundef nonnull align 8 dereferenceable(120) %parser) #25
  resume { ptr, i32 } %.pn

return:                                           ; preds = %entry, %_ZN6icu_7512LocalPointerINS_11PluralRulesEED2Ev.exit20
  %retval.1 = phi ptr [ %retval.031, %_ZN6icu_7512LocalPointerINS_11PluralRulesEED2Ev.exit20 ], [ null, %entry ]
  ret ptr %retval.1
}